; Function Attrs: mustprogress nofree norecurse nosync nounwind sspstrong willreturn memory(argmem: read) uwtable
define internal range(i64 0, 3200171711) i64 @pci_vga_qext_read(ptr noundef readonly captures(none) %ptr, i64 noundef %addr, i32 %size) #2 {
entry:
  switch i64 %addr, label %sw.default [
    i64 0, label %return
    i64 4, label %sw.bb1
  ]

sw.bb1:                                           ; preds = %entry
  %big_endian_fb = getelementptr inbounds nuw i8, ptr %ptr, i64 2730
  %0 = load i8, ptr %big_endian_fb, align 2
  %tobool = trunc i8 %0 to i1
  %conv = select i1 %tobool, i64 3200171710, i64 505290270
  br label %return

sw.default:                                       ; preds = %entry
  br label %return

return:                                           ; preds = %entry, %sw.default, %sw.bb1
  %retval.0 = phi i64 [ 0, %sw.default ], [ %conv, %sw.bb1 ], [ 8, %entry ]
  ret i64 %retval.0
}